#include <math.h>
#include <stdio.h>
#include <stdlib.h>
#include <string.h>


int main(){
	 int m,n,i=0,j=0;
	 double a=1,b=2,c,sum=0;
	 
	 scanf("%d",&m);
	 for( i=0;i<m;i++){
		 scanf("%d",&n);
		 for(j=0;j<n;j++){
			 sum+=b/a;
			 c=b;
			 b=a+b;
			 a=c;
		 }
		 printf("%.3lf\n",sum);
		 sum=0;
		 a=1;
		 b=2;
	 }

	 
	
	 return 0;
}
